; Function Attrs: mustprogress nounwind uwtable
define hidden noundef zeroext i8 @_ZN7Matcher25vector_element_basic_typeEPK4Node(ptr noundef %0) local_unnamed_addr #0 align 2 {
  %2 = load ptr, ptr %0, align 8
  %3 = getelementptr inbounds i8, ptr %2, i64 40
  %4 = load ptr, ptr %3, align 8
  %5 = tail call noundef ptr %4(ptr noundef nonnull align 8 dereferenceable(52) %0) #15
  %6 = getelementptr inbounds i8, ptr %5, i64 24
  %7 = load ptr, ptr %6, align 8
  %8 = tail call noundef zeroext i8 @_ZNK4Type24array_element_basic_typeEv(ptr noundef nonnull align 8 dereferenceable(20) %7) #15
  ret i8 %8
}